target datalayout = "e-m:e-p270:32:32-p271:32:32-p272:64:64-i64:64-i128:128-f80:128-n8:16:32:64-S128"
target triple = "x86_64-pc-linux-gnu"

%struct._GArray = type { ptr, i32 }
%struct.file_type_subtype_info = type { ptr, ptr, ptr, ptr, i8, i64, ptr, ptr, ptr, ptr }
%struct.wtap_wslua_file_info = type { ptr, ptr }
%struct.wtap_dumper = type { ptr, i32, i32, i32, i32, i8, i64, ptr, ptr, ptr, ptr, ptr, ptr, ptr, ptr, ptr, ptr, ptr, ptr, ptr, i32, i32, i32 }

@file_type_subtype_table_arr = internal global ptr null, align 8
@file_type_subtype_table = internal global ptr null, align 8
@.str.14 = private unnamed_addr constant [4 x i8] c"tmp\00", align 1
@.str.154 = private unnamed_addr constant [3 x i8] c"wb\00", align 1

; Function Attrs: null_pointer_is_valid sspstrong uwtable
define internal i32 @wtap_dump_file_close(ptr noundef %0) #0 {
  %2 = alloca i32, align 4
  %3 = alloca ptr, align 8
  store ptr %0, ptr %3, align 8
  %4 = load ptr, ptr %3, align 8
  %5 = getelementptr inbounds nuw %struct.wtap_dumper, ptr %4, i32 0, i32 4
  %6 = load i32, ptr %5, align 4
  switch i32 %6, label %17 [
    i32 1, label %7
    i32 3, label %12
  ]

7:                                                ; preds = %1
  %8 = load ptr, ptr %3, align 8
  %9 = getelementptr inbounds nuw %struct.wtap_dumper, ptr %8, i32 0, i32 0
  %10 = load ptr, ptr %9, align 8
  %11 = call i32 @gzwfile_close(ptr noundef %10)
  store i32 %11, ptr %2, align 4
  br label %22

12:                                               ; preds = %1
  %13 = load ptr, ptr %3, align 8
  %14 = getelementptr inbounds nuw %struct.wtap_dumper, ptr %13, i32 0, i32 0
  %15 = load ptr, ptr %14, align 8
  %16 = call i32 @lz4wfile_close(ptr noundef %15)
  store i32 %16, ptr %2, align 4
  br label %22

17:                                               ; preds = %1
  %18 = load ptr, ptr %3, align 8
  %19 = getelementptr inbounds nuw %struct.wtap_dumper, ptr %18, i32 0, i32 0
  %20 = load ptr, ptr %19, align 8
  %21 = call i32 @fclose(ptr noundef %20)
  store i32 %21, ptr %2, align 4
  br label %22

22:                                               ; preds = %17, %12, %7
  %23 = load i32, ptr %2, align 4
  ret i32 %23
}

; Function Attrs: null_pointer_is_valid sspstrong uwtable
define internal zeroext i1 @wtap_dump_open_finish(ptr noundef %0, ptr noundef %1, ptr noundef %2) #0 {
  %4 = alloca i1, align 1
  %5 = alloca ptr, align 8
  %6 = alloca ptr, align 8
  %7 = alloca ptr, align 8
  %8 = alloca i32, align 4
  %9 = alloca i8, align 1
  %10 = alloca i32, align 4
  store ptr %0, ptr %5, align 8
  store ptr %1, ptr %6, align 8
  store ptr %2, ptr %7, align 8
  call void @llvm.lifetime.start.p0(i64 4, ptr %8) #12
  call void @llvm.lifetime.start.p0(i64 1, ptr %9) #12
  %11 = load ptr, ptr %5, align 8
  %12 = getelementptr inbounds nuw %struct.wtap_dumper, ptr %11, i32 0, i32 4
  %13 = load i32, ptr %12, align 4
  %14 = icmp ne i32 %13, 0
  br i1 %14, label %15, label %16

15:                                               ; preds = %3
  store i8 1, ptr %9, align 1
  br label %29

16:                                               ; preds = %3
  %17 = load ptr, ptr %5, align 8
  %18 = getelementptr inbounds nuw %struct.wtap_dumper, ptr %17, i32 0, i32 0
  %19 = load ptr, ptr %18, align 8
  %20 = call i32 @fileno(ptr noundef %19) #12
  store i32 %20, ptr %8, align 4
  %21 = load i32, ptr %8, align 4
  %22 = call i64 @lseek(i32 noundef %21, i64 noundef 1, i32 noundef 1) #12
  %23 = icmp eq i64 %22, -1
  br i1 %23, label %24, label %25

24:                                               ; preds = %16
  store i8 1, ptr %9, align 1
  br label %28

25:                                               ; preds = %16
  %26 = load i32, ptr %8, align 4
  %27 = call i64 @lseek(i32 noundef %26, i64 noundef 0, i32 noundef 0) #12
  store i8 0, ptr %9, align 1
  br label %28

28:                                               ; preds = %25, %24
  br label %29

29:                                               ; preds = %28, %15
  %30 = load ptr, ptr @file_type_subtype_table, align 8
  %31 = load ptr, ptr %5, align 8
  %32 = getelementptr inbounds nuw %struct.wtap_dumper, ptr %31, i32 0, i32 1
  %33 = load i32, ptr %32, align 8
  %34 = sext i32 %33 to i64
  %35 = getelementptr %struct.file_type_subtype_info, ptr %30, i64 %34
  %36 = getelementptr inbounds nuw %struct.file_type_subtype_info, ptr %35, i32 0, i32 4
  %37 = load i8, ptr %36, align 8, !range !10, !noundef !11
  %38 = trunc i8 %37 to i1
  br i1 %38, label %39, label %44

39:                                               ; preds = %29
  %40 = load i8, ptr %9, align 1, !range !10, !noundef !11
  %41 = trunc i8 %40 to i1
  br i1 %41, label %42, label %44

42:                                               ; preds = %39
  %43 = load ptr, ptr %6, align 8
  store i32 -5, ptr %43, align 4
  store i1 false, ptr %4, align 1
  store i32 1, ptr %10, align 4
  br label %82

44:                                               ; preds = %39, %29
  %45 = load ptr, ptr @file_type_subtype_table, align 8
  %46 = load ptr, ptr %5, align 8
  %47 = getelementptr inbounds nuw %struct.wtap_dumper, ptr %46, i32 0, i32 1
  %48 = load i32, ptr %47, align 8
  %49 = sext i32 %48 to i64
  %50 = getelementptr %struct.file_type_subtype_info, ptr %45, i64 %49
  %51 = getelementptr inbounds nuw %struct.file_type_subtype_info, ptr %50, i32 0, i32 9
  %52 = load ptr, ptr %51, align 8
  %53 = icmp ne ptr %52, null
  br i1 %53, label %54, label %67

54:                                               ; preds = %44
  %55 = load ptr, ptr @file_type_subtype_table, align 8
  %56 = load ptr, ptr %5, align 8
  %57 = getelementptr inbounds nuw %struct.wtap_dumper, ptr %56, i32 0, i32 1
  %58 = load i32, ptr %57, align 8
  %59 = sext i32 %58 to i64
  %60 = getelementptr %struct.file_type_subtype_info, ptr %55, i64 %59
  %61 = getelementptr inbounds nuw %struct.file_type_subtype_info, ptr %60, i32 0, i32 9
  %62 = load ptr, ptr %61, align 8
  %63 = getelementptr inbounds nuw %struct.wtap_wslua_file_info, ptr %62, i32 0, i32 1
  %64 = load ptr, ptr %63, align 8
  %65 = load ptr, ptr %5, align 8
  %66 = getelementptr inbounds nuw %struct.wtap_dumper, ptr %65, i32 0, i32 8
  store ptr %64, ptr %66, align 8
  br label %67

67:                                               ; preds = %54, %44
  %68 = load ptr, ptr @file_type_subtype_table, align 8
  %69 = load ptr, ptr %5, align 8
  %70 = getelementptr inbounds nuw %struct.wtap_dumper, ptr %69, i32 0, i32 1
  %71 = load i32, ptr %70, align 8
  %72 = sext i32 %71 to i64
  %73 = getelementptr %struct.file_type_subtype_info, ptr %68, i64 %72
  %74 = getelementptr inbounds nuw %struct.file_type_subtype_info, ptr %73, i32 0, i32 8
  %75 = load ptr, ptr %74, align 8
  %76 = load ptr, ptr %5, align 8
  %77 = load ptr, ptr %6, align 8
  %78 = load ptr, ptr %7, align 8
  %79 = call zeroext i1 %75(ptr noundef %76, ptr noundef %77, ptr noundef %78)
  br i1 %79, label %81, label %80

80:                                               ; preds = %67
  store i1 false, ptr %4, align 1
  store i32 1, ptr %10, align 4
  br label %82

81:                                               ; preds = %67
  store i1 true, ptr %4, align 1
  store i32 1, ptr %10, align 4
  br label %82

82:                                               ; preds = %81, %80, %42
  call void @llvm.lifetime.end.p0(i64 1, ptr %9) #12
  call void @llvm.lifetime.end.p0(i64 4, ptr %8) #12
  %83 = load i1, ptr %4, align 1
  ret i1 %83
}

; Function Attrs: null_pointer_is_valid sspstrong uwtable
define internal ptr @wtap_dump_file_fdopen(ptr noundef %0, i32 noundef %1) #0 {
  %3 = alloca ptr, align 8
  %4 = alloca ptr, align 8
  %5 = alloca i32, align 4
  store ptr %0, ptr %4, align 8
  store i32 %1, ptr %5, align 4
  %6 = load ptr, ptr %4, align 8
  %7 = getelementptr inbounds nuw %struct.wtap_dumper, ptr %6, i32 0, i32 4
  %8 = load i32, ptr %7, align 4
  switch i32 %8, label %15 [
    i32 1, label %9
    i32 3, label %12
  ]

9:                                                ; preds = %2
  %10 = load i32, ptr %5, align 4
  %11 = call ptr @gzwfile_fdopen(i32 noundef %10)
  store ptr %11, ptr %3, align 8
  br label %18

12:                                               ; preds = %2
  %13 = load i32, ptr %5, align 4
  %14 = call ptr @lz4wfile_fdopen(i32 noundef %13)
  store ptr %14, ptr %3, align 8
  br label %18

15:                                               ; preds = %2
  %16 = load i32, ptr %5, align 4
  %17 = call noalias ptr @fdopen(i32 noundef %16, ptr noundef @.str.154) #12
  store ptr %17, ptr %3, align 8
  br label %18

18:                                               ; preds = %15, %12, %9
  %19 = load ptr, ptr %3, align 8
  ret ptr %19
}

; Function Attrs: nounwind null_pointer_is_valid sspstrong uwtable
define ptr @wtap_default_file_extension(i32 noundef %0) #2 {
  %2 = alloca ptr, align 8
  %3 = alloca i32, align 4
  store i32 %0, ptr %3, align 4
  %4 = load i32, ptr %3, align 4
  %5 = icmp slt i32 %4, 0
  br i1 %5, label %12, label %6

6:                                                ; preds = %1
  %7 = load i32, ptr %3, align 4
  %8 = load ptr, ptr @file_type_subtype_table_arr, align 8
  %9 = getelementptr inbounds nuw %struct._GArray, ptr %8, i32 0, i32 1
  %10 = load i32, ptr %9, align 8
  %11 = icmp sge i32 %7, %10
  br i1 %11, label %12, label %13

12:                                               ; preds = %6, %1
  store ptr null, ptr %2, align 8
  br label %20

13:                                               ; preds = %6
  %14 = load ptr, ptr @file_type_subtype_table, align 8
  %15 = load i32, ptr %3, align 4
  %16 = sext i32 %15 to i64
  %17 = getelementptr %struct.file_type_subtype_info, ptr %14, i64 %16
  %18 = getelementptr inbounds nuw %struct.file_type_subtype_info, ptr %17, i32 0, i32 2
  %19 = load ptr, ptr %18, align 8
  store ptr %19, ptr %2, align 8
  br label %20

20:                                               ; preds = %13, %12
  %21 = load ptr, ptr %2, align 8
  ret ptr %21
}

; Function Attrs: null_pointer_is_valid sspstrong uwtable
define ptr @wtap_dump_open_tempfile(ptr noundef %0, ptr noundef %1, ptr noundef %2, i32 noundef %3, i32 noundef %4, ptr noundef %5, ptr noundef %6, ptr noundef %7) #0 {
  %9 = alloca ptr, align 8
  %10 = alloca ptr, align 8
  %11 = alloca ptr, align 8
  %12 = alloca ptr, align 8
  %13 = alloca i32, align 4
  %14 = alloca i32, align 4
  %15 = alloca ptr, align 8
  %16 = alloca ptr, align 8
  %17 = alloca ptr, align 8
  %18 = alloca i32, align 4
  %19 = alloca ptr, align 8
  %20 = alloca [16 x i8], align 16
  %21 = alloca ptr, align 8
  %22 = alloca ptr, align 8
  %23 = alloca i32, align 4
  store ptr %0, ptr %10, align 8
  store ptr %1, ptr %11, align 8
  store ptr %2, ptr %12, align 8
  store i32 %3, ptr %13, align 4
  store i32 %4, ptr %14, align 4
  store ptr %5, ptr %15, align 8
  store ptr %6, ptr %16, align 8
  store ptr %7, ptr %17, align 8
  call void @llvm.lifetime.start.p0(i64 4, ptr %18) #12
  call void @llvm.lifetime.start.p0(i64 8, ptr %19) #12
  call void @llvm.lifetime.start.p0(i64 16, ptr %20) #12
  call void @llvm.lifetime.start.p0(i64 8, ptr %21) #12
  call void @llvm.lifetime.start.p0(i64 8, ptr %22) #12
  %24 = load ptr, ptr %11, align 8
  store ptr null, ptr %24, align 8
  %25 = load ptr, ptr %16, align 8
  store i32 0, ptr %25, align 4
  %26 = load ptr, ptr %17, align 8
  store ptr null, ptr %26, align 8
  %27 = load i32, ptr %13, align 4
  %28 = load i32, ptr %14, align 4
  %29 = load ptr, ptr %15, align 8
  %30 = load ptr, ptr %16, align 8
  %31 = call ptr @wtap_dump_init_dumper(i32 noundef %27, i32 noundef %28, ptr noundef %29, ptr noundef %30)
  store ptr %31, ptr %21, align 8
  %32 = load ptr, ptr %21, align 8
  %33 = icmp eq ptr %32, null
  br i1 %33, label %34, label %35

34:                                               ; preds = %8
  store ptr null, ptr %9, align 8
  store i32 1, ptr %23, align 4
  br label %88

35:                                               ; preds = %8
  %36 = load i32, ptr %13, align 4
  %37 = call ptr @wtap_default_file_extension(i32 noundef %36)
  store ptr %37, ptr %19, align 8
  %38 = load ptr, ptr %19, align 8
  %39 = icmp eq ptr %38, null
  br i1 %39, label %40, label %41

40:                                               ; preds = %35
  store ptr @.str.14, ptr %19, align 8
  br label %41

41:                                               ; preds = %40, %35
  %42 = getelementptr [16 x i8], ptr %20, i64 0, i64 0
  store i8 46, ptr %42, align 16
  %43 = getelementptr [16 x i8], ptr %20, i64 0, i64 1
  store i8 0, ptr %43, align 1
  %44 = getelementptr inbounds [16 x i8], ptr %20, i64 0, i64 0
  %45 = load ptr, ptr %19, align 8
  %46 = call i64 @g_strlcat(ptr noundef %44, ptr noundef %45, i64 noundef 16)
  %47 = load ptr, ptr %10, align 8
  %48 = load ptr, ptr %11, align 8
  %49 = load ptr, ptr %12, align 8
  %50 = getelementptr inbounds [16 x i8], ptr %20, i64 0, i64 0
  %51 = call i32 @create_tempfile(ptr noundef %47, ptr noundef %48, ptr noundef %49, ptr noundef %50, ptr noundef null)
  store i32 %51, ptr %18, align 4
  %52 = load i32, ptr %18, align 4
  %53 = icmp eq i32 %52, -1
  br i1 %53, label %54, label %57

54:                                               ; preds = %41
  %55 = load ptr, ptr %16, align 8
  store i32 -6, ptr %55, align 4
  %56 = load ptr, ptr %21, align 8
  call void @g_free(ptr noundef %56)
  store ptr null, ptr %9, align 8
  store i32 1, ptr %23, align 4
  br label %88

57:                                               ; preds = %41
  %58 = call ptr @__errno_location() #15
  store i32 -6, ptr %58, align 4
  %59 = load ptr, ptr %21, align 8
  %60 = load i32, ptr %18, align 4
  %61 = call ptr @wtap_dump_file_fdopen(ptr noundef %59, i32 noundef %60)
  store ptr %61, ptr %22, align 8
  %62 = load ptr, ptr %22, align 8
  %63 = icmp eq ptr %62, null
  br i1 %63, label %64, label %71

64:                                               ; preds = %57
  %65 = call ptr @__errno_location() #15
  %66 = load i32, ptr %65, align 4
  %67 = load ptr, ptr %16, align 8
  store i32 %66, ptr %67, align 4
  %68 = load i32, ptr %18, align 4
  %69 = call i32 @close(i32 noundef %68)
  %70 = load ptr, ptr %21, align 8
  call void @g_free(ptr noundef %70)
  store ptr null, ptr %9, align 8
  store i32 1, ptr %23, align 4
  br label %88

71:                                               ; preds = %57
  %72 = load ptr, ptr %22, align 8
  %73 = load ptr, ptr %21, align 8
  %74 = getelementptr inbounds nuw %struct.wtap_dumper, ptr %73, i32 0, i32 0
  store ptr %72, ptr %74, align 8
  %75 = load ptr, ptr %21, align 8
  %76 = load ptr, ptr %16, align 8
  %77 = load ptr, ptr %17, align 8
  %78 = call zeroext i1 @wtap_dump_open_finish(ptr noundef %75, ptr noundef %76, ptr noundef %77)
  br i1 %78, label %86, label %79

79:                                               ; preds = %71
  %80 = load ptr, ptr %21, align 8
  %81 = call i32 @wtap_dump_file_close(ptr noundef %80)
  %82 = load ptr, ptr %11, align 8
  %83 = load ptr, ptr %82, align 8
  %84 = call i32 @unlink(ptr noundef %83) #12
  %85 = load ptr, ptr %21, align 8
  call void @g_free(ptr noundef %85)
  store ptr null, ptr %9, align 8
  store i32 1, ptr %23, align 4
  br label %88

86:                                               ; preds = %71
  %87 = load ptr, ptr %21, align 8
  store ptr %87, ptr %9, align 8
  store i32 1, ptr %23, align 4
  br label %88

88:                                               ; preds = %86, %79, %64, %54, %34
  call void @llvm.lifetime.end.p0(i64 8, ptr %22) #12
  call void @llvm.lifetime.end.p0(i64 8, ptr %21) #12
  call void @llvm.lifetime.end.p0(i64 16, ptr %20) #12
  call void @llvm.lifetime.end.p0(i64 8, ptr %19) #12
  call void @llvm.lifetime.end.p0(i64 4, ptr %18) #12
  %89 = load ptr, ptr %9, align 8
  ret ptr %89
}