; Function Attrs: null_pointer_is_valid sspstrong uwtable
define noundef ptr @wtap_dump_open_tempfile(ptr noundef %0, ptr noundef initializes((0, 8)) %1, ptr noundef %2, i32 noundef %3, i32 noundef %4, ptr noundef %5, ptr noundef initializes((0, 4)) %6, ptr noundef initializes((0, 8)) %7) local_unnamed_addr #0 {
  %9 = alloca [16 x i8], align 16
  call void @llvm.lifetime.start.p0(i64 16, ptr nonnull %9) #24
  store ptr null, ptr %1, align 8
  store i32 0, ptr %6, align 4
  store ptr null, ptr %7, align 8
  %10 = tail call fastcc ptr @wtap_dump_init_dumper(i32 noundef %3, i32 noundef %4, ptr noundef %5, ptr noundef %6)
  %11 = icmp eq ptr %10, null
  br i1 %11, label %84, label %12

12:                                               ; preds = %8
  %13 = icmp slt i32 %3, 0
  br i1 %13, label %wtap_default_file_extension.exit, label %14

14:                                               ; preds = %12
  %15 = load ptr, ptr @file_type_subtype_table_arr, align 8
  %16 = getelementptr inbounds nuw i8, ptr %15, i64 8
  %17 = load i32, ptr %16, align 8
  %.not.i = icmp slt i32 %3, %17
  br i1 %.not.i, label %18, label %wtap_default_file_extension.exit

18:                                               ; preds = %14
  %19 = load ptr, ptr @file_type_subtype_table, align 8
  %20 = zext nneg i32 %3 to i64
  %21 = getelementptr %struct.file_type_subtype_info, ptr %19, i64 %20, i32 2
  %22 = load ptr, ptr %21, align 8
  br label %wtap_default_file_extension.exit

wtap_default_file_extension.exit:                 ; preds = %12, %14, %18
  %.0.i = phi ptr [ %22, %18 ], [ null, %14 ], [ null, %12 ]
  %23 = icmp eq ptr %.0.i, null
  %spec.store.select = select i1 %23, ptr @.str.14, ptr %.0.i
  store i8 46, ptr %9, align 16
  %24 = getelementptr inbounds nuw i8, ptr %9, i64 1
  store i8 0, ptr %24, align 1
  %25 = call i64 @g_strlcat(ptr noundef nonnull %9, ptr noundef nonnull %spec.store.select, i64 noundef 16)
  %26 = call i32 @create_tempfile(ptr noundef %0, ptr noundef %1, ptr noundef %2, ptr noundef nonnull %9, ptr noundef null)
  %27 = icmp eq i32 %26, -1
  br i1 %27, label %28, label %29

28:                                               ; preds = %wtap_default_file_extension.exit
  store i32 -6, ptr %6, align 4
  br label %.sink.split

29:                                               ; preds = %wtap_default_file_extension.exit
  %30 = tail call ptr @__errno_location() #25
  store i32 -6, ptr %30, align 4
  %31 = getelementptr i8, ptr %10, i64 20
  %.val = load i32, ptr %31, align 4
  switch i32 %.val, label %36 [
    i32 1, label %32
    i32 3, label %34
  ]

32:                                               ; preds = %29
  %33 = call ptr @gzwfile_fdopen(i32 noundef %26)
  br label %wtap_dump_file_fdopen.exit

34:                                               ; preds = %29
  %35 = call ptr @lz4wfile_fdopen(i32 noundef %26)
  br label %wtap_dump_file_fdopen.exit

36:                                               ; preds = %29
  %37 = call noalias ptr @fdopen(i32 noundef %26, ptr noundef nonnull @.str.154) #24
  br label %wtap_dump_file_fdopen.exit

wtap_dump_file_fdopen.exit:                       ; preds = %32, %34, %36
  %.0.i35 = phi ptr [ %37, %36 ], [ %35, %34 ], [ %33, %32 ]
  %38 = icmp eq ptr %.0.i35, null
  br i1 %38, label %39, label %42

39:                                               ; preds = %wtap_dump_file_fdopen.exit
  %40 = load i32, ptr %30, align 4
  store i32 %40, ptr %6, align 4
  %41 = call i32 @close(i32 noundef %26)
  br label %.sink.split

42:                                               ; preds = %wtap_dump_file_fdopen.exit
  store ptr %.0.i35, ptr %10, align 8
  %43 = load i32, ptr %31, align 4
  %.not.i36 = icmp eq i32 %43, 0
  br i1 %.not.i36, label %44, label %53

44:                                               ; preds = %42
  %45 = call i32 @fileno(ptr noundef nonnull %.0.i35) #24
  %46 = call i64 @lseek(i32 noundef %45, i64 noundef 1, i32 noundef 1) #24
  %47 = icmp eq i64 %46, -1
  br i1 %47, label %53, label %.thread.i

.thread.i:                                        ; preds = %44
  %48 = call i64 @lseek(i32 noundef %45, i64 noundef 0, i32 noundef 0) #24
  %49 = load ptr, ptr @file_type_subtype_table, align 8
  %50 = getelementptr inbounds nuw i8, ptr %10, i64 8
  %51 = load i32, ptr %50, align 8
  %52 = sext i32 %51 to i64
  br label %61

53:                                               ; preds = %44, %42
  %54 = load ptr, ptr @file_type_subtype_table, align 8
  %55 = getelementptr inbounds nuw i8, ptr %10, i64 8
  %56 = load i32, ptr %55, align 8
  %57 = sext i32 %56 to i64
  %58 = getelementptr %struct.file_type_subtype_info, ptr %54, i64 %57, i32 4
  %59 = load i8, ptr %58, align 8, !range !34, !noundef !35
  %60 = trunc nuw i8 %59 to i1
  br i1 %60, label %wtap_dump_open_finish.exit.thread, label %61

wtap_dump_open_finish.exit.thread:                ; preds = %53
  store i32 -5, ptr %6, align 4
  br label %73

61:                                               ; preds = %53, %.thread.i
  %62 = phi i64 [ %52, %.thread.i ], [ %57, %53 ]
  %63 = phi ptr [ %49, %.thread.i ], [ %54, %53 ]
  %64 = getelementptr %struct.file_type_subtype_info, ptr %63, i64 %62, i32 9
  %65 = load ptr, ptr %64, align 8
  %.not16.i = icmp eq ptr %65, null
  br i1 %.not16.i, label %wtap_dump_open_finish.exit, label %66

66:                                               ; preds = %61
  %67 = getelementptr inbounds nuw i8, ptr %65, i64 8
  %68 = load ptr, ptr %67, align 8
  %69 = getelementptr inbounds nuw i8, ptr %10, i64 48
  store ptr %68, ptr %69, align 8
  br label %wtap_dump_open_finish.exit

wtap_dump_open_finish.exit:                       ; preds = %61, %66
  %70 = getelementptr %struct.file_type_subtype_info, ptr %63, i64 %62, i32 8
  %71 = load ptr, ptr %70, align 8
  %72 = call zeroext i1 %71(ptr noundef nonnull %10, ptr noundef %6, ptr noundef %7)
  br i1 %72, label %84, label %73

73:                                               ; preds = %wtap_dump_open_finish.exit.thread, %wtap_dump_open_finish.exit
  %74 = load i32, ptr %31, align 4
  %75 = load ptr, ptr %10, align 8
  switch i32 %74, label %80 [
    i32 1, label %76
    i32 3, label %78
  ]

76:                                               ; preds = %73
  %77 = call i32 @gzwfile_close(ptr noundef %75)
  br label %wtap_dump_file_close.exit

78:                                               ; preds = %73
  %79 = call i32 @lz4wfile_close(ptr noundef %75)
  br label %wtap_dump_file_close.exit

80:                                               ; preds = %73
  %81 = call i32 @fclose(ptr noundef %75)
  br label %wtap_dump_file_close.exit

wtap_dump_file_close.exit:                        ; preds = %76, %78, %80
  %82 = load ptr, ptr %1, align 8
  %83 = call i32 @unlink(ptr noundef %82) #24
  br label %.sink.split

.sink.split:                                      ; preds = %28, %39, %wtap_dump_file_close.exit
  call void @g_free(ptr noundef nonnull %10)
  br label %84

84:                                               ; preds = %.sink.split, %wtap_dump_open_finish.exit, %8
  %.0 = phi ptr [ null, %8 ], [ %10, %wtap_dump_open_finish.exit ], [ null, %.sink.split ]
  call void @llvm.lifetime.end.p0(i64 16, ptr nonnull %9) #24
  ret ptr %.0
}